Certificate:
    Data:
        Version: 3 (0x2)
        Serial Number: 1 (0x1)
    Signature Algorithm: sha1WithRSAEncryption
        Issuer: C=ZH, ST=Beijing, L=Beijing, O=fate Ltd, OU=storage, CN=api.storage.com
        Validity
            Not Before: May  5 14:18:19 2013 GMT
            Not After : May  5 14:18:19 2014 GMT
        Subject: C=ZH, ST=Beijing, O=fate Ltd, OU=storage, CN=api.storage.com
        Subject Public Key Info:
            Public Key Algorithm: rsaEncryption
                Public-Key: (512 bit)
                Modulus:
                    00:f1:7b:eb:b4:16:2a:c3:71:0d:86:a0:75:0b:24:
                    79:ef:6b:a7:e3:f8:24:71:07:5c:67:78:d2:e2:af:
                    ae:91:65:f3:87:43:e7:f0:36:30:c5:58:77:ca:b4:
                    47:6d:40:7e:a4:09:4c:2b:02:74:aa:7d:18:17:74:
                    79:15:6b:b2:e1
                Exponent: 65537 (0x10001)
        X509v3 extensions:
            X509v3 Basic Constraints: 
                CA:FALSE
            Netscape Comment: 
                OpenSSL Generated Certificate
            X509v3 Subject Key Identifier: 
                78:87:A6:57:93:1D:F0:E1:AF:D1:0A:F3:29:31:45:C8:4B:B2:0E:75
            X509v3 Authority Key Identifier: 
                keyid:29:AB:E8:84:5C:E3:25:83:3C:18:44:67:5A:75:22:19:9F:FF:6B:FA

    Signature Algorithm: sha1WithRSAEncryption
         79:27:30:32:97:e2:58:aa:18:b9:35:90:ba:a4:73:c2:13:20:
         2d:cc:ea:30:4d:a7:a3:11:02:94:88:d2:c4:61:d4:0a:31:33:
         23:e1:8a:a8:5e:51:2b:da:22:3e:30:7f:23:0c:79:de:70:d4:
         a6:2c:85:fa:09:92:4c:c6:11:47
-----BEGIN CERTIFICATE-----
MIICOjCCAeSgAwIBAgIBATANBgkqhkiG9w0BAQUFADBwMQswCQYDVQQGEwJaSDEQ
MA4GA1UECAwHQmVpamluZzEQMA4GA1UEBwwHQmVpamluZzERMA8GA1UECgwIZmF0
ZSBMdGQxEDAOBgNVBAsMB3N0b3JhZ2UxGDAWBgNVBAMMD2FwaS5zdG9yYWdlLmNv
bTAeFw0xMzA1MDUxNDE4MTlaFw0xNDA1MDUxNDE4MTlaMF4xCzAJBgNVBAYTAlpI
MRAwDgYDVQQIDAdCZWlqaW5nMREwDwYDVQQKDAhmYXRlIEx0ZDEQMA4GA1UECwwH
c3RvcmFnZTEYMBYGA1UEAwwPYXBpLnN0b3JhZ2UuY29tMFwwDQYJKoZIhvcNAQEB
BQADSwAwSAJBAPF767QWKsNxDYagdQskee9rp+P4JHEHXGd40uKvrpFl84dD5/A2
MMVYd8q0R21AfqQJTCsCdKp9GBd0eRVrsuECAwEAAaN7MHkwCQYDVR0TBAIwADAs
BglghkgBhvhCAQ0EHxYdT3BlblNTTCBHZW5lcmF0ZWQgQ2VydGlmaWNhdGUwHQYD
VR0OBBYEFHiHpleTHfDhr9EK8ykxRchLsg51MB8GA1UdIwQYMBaAFCmr6IRc4yWD
PBhEZ1p1Ihmf/2v6MA0GCSqGSIb3DQEBBQUAA0EAeScwMpfiWKoYuTWQuqRzwhMg
LczqME2noxEClIjSxGHUCjEzI+GKqF5RK9oiPjB/Iwx53nDUpiyF+gmSTMYRRw==
-----END CERTIFICATE-----
